target datalayout = "e-m:e-p270:32:32-p271:32:32-p272:64:64-i64:64-i128:128-f80:128-n8:16:32:64-S128"
target triple = "x86_64-pc-linux-gnu"

; Function Attrs: nounwind uwtable
define ptr @ff_nal_mp4_find_startcode(ptr noundef %0, ptr noundef %1, i32 noundef %2) #0 {
  %4 = alloca ptr, align 8
  %5 = alloca ptr, align 8
  %6 = alloca ptr, align 8
  %7 = alloca i32, align 4
  %8 = alloca i32, align 4
  %9 = alloca i32, align 4
  store ptr %0, ptr %5, align 8, !tbaa !4
  store ptr %1, ptr %6, align 8, !tbaa !4
  store i32 %2, ptr %7, align 4, !tbaa !12
  call void @llvm.lifetime.start.p0(i64 4, ptr %8) #5
  store i32 0, ptr %8, align 4, !tbaa !12
  %10 = load ptr, ptr %6, align 8, !tbaa !4
  %11 = load ptr, ptr %5, align 8, !tbaa !4
  %12 = ptrtoint ptr %10 to i64
  %13 = ptrtoint ptr %11 to i64
  %14 = sub i64 %12, %13
  %15 = load i32, ptr %7, align 4, !tbaa !12
  %16 = sext i32 %15 to i64
  %17 = icmp slt i64 %14, %16
  br i1 %17, label %18, label %19

18:                                               ; preds = %3
  store ptr null, ptr %4, align 8
  store i32 1, ptr %9, align 4
  br label %47

19:                                               ; preds = %3
  br label %20

20:                                               ; preds = %24, %19
  %21 = load i32, ptr %7, align 4, !tbaa !12
  %22 = add nsw i32 %21, -1
  store i32 %22, ptr %7, align 4, !tbaa !12
  %23 = icmp ne i32 %21, 0
  br i1 %23, label %24, label %32

24:                                               ; preds = %20
  %25 = load i32, ptr %8, align 4, !tbaa !12
  %26 = shl i32 %25, 8
  %27 = load ptr, ptr %5, align 8, !tbaa !4
  %28 = getelementptr inbounds nuw i8, ptr %27, i32 1
  store ptr %28, ptr %5, align 8, !tbaa !4
  %29 = load i8, ptr %27, align 1, !tbaa !9
  %30 = zext i8 %29 to i32
  %31 = or i32 %26, %30
  store i32 %31, ptr %8, align 4, !tbaa !12
  br label %20, !llvm.loop !38

32:                                               ; preds = %20
  %33 = load i32, ptr %8, align 4, !tbaa !12
  %34 = zext i32 %33 to i64
  %35 = load ptr, ptr %6, align 8, !tbaa !4
  %36 = load ptr, ptr %5, align 8, !tbaa !4
  %37 = ptrtoint ptr %35 to i64
  %38 = ptrtoint ptr %36 to i64
  %39 = sub i64 %37, %38
  %40 = icmp sgt i64 %34, %39
  br i1 %40, label %41, label %42

41:                                               ; preds = %32
  store ptr null, ptr %4, align 8
  store i32 1, ptr %9, align 4
  br label %47

42:                                               ; preds = %32
  %43 = load ptr, ptr %5, align 8, !tbaa !4
  %44 = load i32, ptr %8, align 4, !tbaa !12
  %45 = zext i32 %44 to i64
  %46 = getelementptr inbounds nuw i8, ptr %43, i64 %45
  store ptr %46, ptr %4, align 8
  store i32 1, ptr %9, align 4
  br label %47

47:                                               ; preds = %42, %41, %18
  call void @llvm.lifetime.end.p0(i64 4, ptr %8) #5
  %48 = load ptr, ptr %4, align 8
  ret ptr %48
}