; Function Attrs: nofree norecurse nosync nounwind memory(argmem: read) uwtable
define ptr @ff_nal_mp4_find_startcode(ptr noundef %0, ptr noundef %1, i32 noundef %2) local_unnamed_addr #4 {
  %4 = ptrtoint ptr %1 to i64
  %5 = ptrtoint ptr %0 to i64
  %6 = sub i64 %4, %5
  %7 = sext i32 %2 to i64
  %8 = icmp slt i64 %6, %7
  br i1 %8, label %19, label %.preheader

.preheader:                                       ; preds = %3
  %.not15 = icmp eq i32 %2, 0
  br i1 %.not15, label %._crit_edge, label %.lr.ph

.lr.ph:                                           ; preds = %.preheader, %.lr.ph
  %.018 = phi i32 [ %14, %.lr.ph ], [ 0, %.preheader ]
  %.01117 = phi i32 [ %9, %.lr.ph ], [ %2, %.preheader ]
  %.01316 = phi ptr [ %11, %.lr.ph ], [ %0, %.preheader ]
  %9 = add nsw i32 %.01117, -1
  %10 = shl i32 %.018, 8
  %11 = getelementptr inbounds nuw i8, ptr %.01316, i64 1
  %12 = load i8, ptr %.01316, align 1, !tbaa !4
  %13 = zext i8 %12 to i32
  %14 = or disjoint i32 %10, %13
  %.not = icmp eq i32 %9, 0
  br i1 %.not, label %._crit_edge.loopexit, label %.lr.ph, !llvm.loop !25

._crit_edge.loopexit:                             ; preds = %.lr.ph
  %15 = zext i32 %2 to i64
  %scevgep = getelementptr i8, ptr %0, i64 %15
  %.pre = ptrtoint ptr %scevgep to i64
  %.pre21 = sub i64 %4, %.pre
  %16 = zext i32 %14 to i64
  br label %._crit_edge

._crit_edge:                                      ; preds = %._crit_edge.loopexit, %.preheader
  %.pre-phi22 = phi i64 [ %.pre21, %._crit_edge.loopexit ], [ %6, %.preheader ]
  %.013.lcssa = phi ptr [ %scevgep, %._crit_edge.loopexit ], [ %0, %.preheader ]
  %.0.lcssa = phi i64 [ %16, %._crit_edge.loopexit ], [ 0, %.preheader ]
  %17 = icmp slt i64 %.pre-phi22, %.0.lcssa
  %18 = getelementptr inbounds nuw i8, ptr %.013.lcssa, i64 %.0.lcssa
  %spec.select = select i1 %17, ptr null, ptr %18
  br label %19

19:                                               ; preds = %._crit_edge, %3
  %.012 = phi ptr [ null, %3 ], [ %spec.select, %._crit_edge ]
  ret ptr %.012
}